; Function Attrs: nounwind uwtable
define void @glfwShowWindow(ptr noundef %0) local_unnamed_addr #0 {
  %2 = load i32, ptr @_glfw, align 8, !tbaa !138
  %.not = icmp eq i32 %2, 0
  br i1 %.not, label %3, label %4

3:                                                ; preds = %1
  tail call void (i32, ptr, ...) @_glfwInputError(i32 noundef 65537, ptr noundef null) #7
  br label %13

4:                                                ; preds = %1
  %5 = getelementptr inbounds nuw i8, ptr %0, i64 80
  %6 = load ptr, ptr %5, align 8, !tbaa !137
  %.not5 = icmp eq ptr %6, null
  br i1 %.not5, label %7, label %13

7:                                                ; preds = %4
  %8 = load ptr, ptr getelementptr inbounds nuw (i8, ptr @_glfw, i64 400), align 8, !tbaa !249
  tail call void %8(ptr noundef nonnull %0) #7
  %9 = getelementptr inbounds nuw i8, ptr %0, i64 24
  %10 = load i32, ptr %9, align 8, !tbaa !171
  %.not6 = icmp eq i32 %10, 0
  br i1 %.not6, label %13, label %11

11:                                               ; preds = %7
  %12 = load ptr, ptr getelementptr inbounds nuw (i8, ptr @_glfw, i64 424), align 8, !tbaa !250
  tail call void %12(ptr noundef nonnull %0) #7
  br label %13

13:                                               ; preds = %7, %11, %4, %3
  ret void
}